target datalayout = "e-m:e-p270:32:32-p271:32:32-p272:64:64-i64:64-i128:128-f80:128-n8:16:32:64-S128"
target triple = "x86_64-pc-linux-gnu"

%"class.zmq::socket_poller_t" = type { i32, ptr, %"class.std::vector", i8, i8, i32, ptr }
%"class.std::vector" = type { %"struct.std::_Vector_base" }
%"struct.std::_Vector_base" = type { %"struct.std::_Vector_base<zmq::socket_poller_t::item_t, std::allocator<zmq::socket_poller_t::item_t>>::_Vector_impl" }
%"struct.std::_Vector_base<zmq::socket_poller_t::item_t, std::allocator<zmq::socket_poller_t::item_t>>::_Vector_impl" = type { %"struct.std::_Vector_base<zmq::socket_poller_t::item_t, std::allocator<zmq::socket_poller_t::item_t>>::_Vector_impl_data" }
%"struct.std::_Vector_base<zmq::socket_poller_t::item_t, std::allocator<zmq::socket_poller_t::item_t>>::_Vector_impl_data" = type { ptr, ptr, ptr }
%"class.__gnu_cxx::__normal_iterator" = type { ptr }
%"struct.zmq::socket_poller_t::item_t" = type { ptr, i32, ptr, i16, i32 }

; Function Attrs: mustprogress nounwind uwtable
define linkonce_odr void @_ZNSt15__new_allocatorIN3zmq15socket_poller_t6item_tEE10deallocateEPS2_m(ptr noundef nonnull align 1 dereferenceable(1) %0, ptr noundef %1, i64 noundef %2) #1 comdat align 2 {
  %4 = alloca ptr, align 8
  %5 = alloca ptr, align 8
  %6 = alloca i64, align 8
  store ptr %0, ptr %4, align 8, !tbaa !100
  store ptr %1, ptr %5, align 8, !tbaa !51
  store i64 %2, ptr %6, align 8, !tbaa !39
  %7 = load ptr, ptr %5, align 8, !tbaa !51
  call void @_ZdlPv(ptr noundef %7) #21
  ret void
}

; Function Attrs: mustprogress uwtable
define linkonce_odr void @_ZNSt16allocator_traitsISaIN3zmq15socket_poller_t6item_tEEE10deallocateERS3_PS2_m(ptr noundef nonnull align 1 dereferenceable(1) %0, ptr noundef %1, i64 noundef %2) #0 comdat align 2 {
  %4 = alloca ptr, align 8
  %5 = alloca ptr, align 8
  %6 = alloca i64, align 8
  store ptr %0, ptr %4, align 8, !tbaa !96
  store ptr %1, ptr %5, align 8, !tbaa !51
  store i64 %2, ptr %6, align 8, !tbaa !39
  %7 = load ptr, ptr %4, align 8, !tbaa !96
  %8 = load ptr, ptr %5, align 8, !tbaa !51
  %9 = load i64, ptr %6, align 8, !tbaa !39
  call void @_ZNSt15__new_allocatorIN3zmq15socket_poller_t6item_tEE10deallocateEPS2_m(ptr noundef nonnull align 1 dereferenceable(1) %7, ptr noundef %8, i64 noundef %9)
  ret void
}

; Function Attrs: mustprogress nounwind uwtable
define linkonce_odr void @_ZNSt12_Destroy_auxILb1EE9__destroyIPN3zmq15socket_poller_t6item_tEEEvT_S6_(ptr noundef %0, ptr noundef %1) #1 comdat align 2 {
  %3 = alloca ptr, align 8
  %4 = alloca ptr, align 8
  store ptr %0, ptr %3, align 8, !tbaa !51
  store ptr %1, ptr %4, align 8, !tbaa !51
  ret void
}

; Function Attrs: mustprogress nounwind uwtable
define linkonce_odr void @_ZNSt15__new_allocatorIN3zmq15socket_poller_t6item_tEED2Ev(ptr noundef nonnull align 1 dereferenceable(1) %0) unnamed_addr #1 comdat align 2 {
  %2 = alloca ptr, align 8
  store ptr %0, ptr %2, align 8, !tbaa !100
  ret void
}

; Function Attrs: mustprogress uwtable
define linkonce_odr void @_ZNSt12_Vector_baseIN3zmq15socket_poller_t6item_tESaIS2_EE13_M_deallocateEPS2_m(ptr noundef nonnull align 8 dereferenceable(24) %0, ptr noundef %1, i64 noundef %2) #0 comdat align 2 {
  %4 = alloca ptr, align 8
  %5 = alloca ptr, align 8
  %6 = alloca i64, align 8
  store ptr %0, ptr %4, align 8, !tbaa !92
  store ptr %1, ptr %5, align 8, !tbaa !51
  store i64 %2, ptr %6, align 8, !tbaa !39
  %7 = load ptr, ptr %4, align 8
  %8 = load ptr, ptr %5, align 8, !tbaa !51
  %9 = icmp ne ptr %8, null
  br i1 %9, label %10, label %14

10:                                               ; preds = %3
  %11 = getelementptr inbounds nuw %"struct.std::_Vector_base", ptr %7, i32 0, i32 0
  %12 = load ptr, ptr %5, align 8, !tbaa !51
  %13 = load i64, ptr %6, align 8, !tbaa !39
  call void @_ZNSt16allocator_traitsISaIN3zmq15socket_poller_t6item_tEEE10deallocateERS3_PS2_m(ptr noundef nonnull align 1 dereferenceable(1) %11, ptr noundef %12, i64 noundef %13)
  br label %14

14:                                               ; preds = %10, %3
  ret void
}

; Function Attrs: inlinehint mustprogress uwtable
define linkonce_odr void @_ZSt8_DestroyIPN3zmq15socket_poller_t6item_tEEvT_S4_(ptr noundef %0, ptr noundef %1) #13 comdat {
  %3 = alloca ptr, align 8
  %4 = alloca ptr, align 8
  store ptr %0, ptr %3, align 8, !tbaa !51
  store ptr %1, ptr %4, align 8, !tbaa !51
  %5 = load ptr, ptr %3, align 8, !tbaa !51
  %6 = load ptr, ptr %4, align 8, !tbaa !51
  call void @_ZNSt12_Destroy_auxILb1EE9__destroyIPN3zmq15socket_poller_t6item_tEEEvT_S6_(ptr noundef %5, ptr noundef %6)
  ret void
}

; Function Attrs: mustprogress nounwind uwtable
define linkonce_odr void @_ZNSt12_Vector_baseIN3zmq15socket_poller_t6item_tESaIS2_EED2Ev(ptr noundef nonnull align 8 dereferenceable(24) %0) unnamed_addr #1 comdat align 2 personality ptr @__gxx_personality_v0 {
  %2 = alloca ptr, align 8
  store ptr %0, ptr %2, align 8, !tbaa !92
  %3 = load ptr, ptr %2, align 8
  %4 = getelementptr inbounds nuw %"struct.std::_Vector_base", ptr %3, i32 0, i32 0
  %5 = getelementptr inbounds nuw %"struct.std::_Vector_base<zmq::socket_poller_t::item_t, std::allocator<zmq::socket_poller_t::item_t>>::_Vector_impl_data", ptr %4, i32 0, i32 0
  %6 = load ptr, ptr %5, align 8, !tbaa !46
  %7 = getelementptr inbounds nuw %"struct.std::_Vector_base", ptr %3, i32 0, i32 0
  %8 = getelementptr inbounds nuw %"struct.std::_Vector_base<zmq::socket_poller_t::item_t, std::allocator<zmq::socket_poller_t::item_t>>::_Vector_impl_data", ptr %7, i32 0, i32 2
  %9 = load ptr, ptr %8, align 8, !tbaa !65
  %10 = getelementptr inbounds nuw %"struct.std::_Vector_base", ptr %3, i32 0, i32 0
  %11 = getelementptr inbounds nuw %"struct.std::_Vector_base<zmq::socket_poller_t::item_t, std::allocator<zmq::socket_poller_t::item_t>>::_Vector_impl_data", ptr %10, i32 0, i32 0
  %12 = load ptr, ptr %11, align 8, !tbaa !46
  %13 = ptrtoint ptr %9 to i64
  %14 = ptrtoint ptr %12 to i64
  %15 = sub i64 %13, %14
  %16 = sdiv exact i64 %15, 32
  invoke void @_ZNSt12_Vector_baseIN3zmq15socket_poller_t6item_tESaIS2_EE13_M_deallocateEPS2_m(ptr noundef nonnull align 8 dereferenceable(24) %3, ptr noundef %6, i64 noundef %16)
          to label %17 unwind label %19

17:                                               ; preds = %1
  %18 = getelementptr inbounds nuw %"struct.std::_Vector_base", ptr %3, i32 0, i32 0
  call void @_ZNSt15__new_allocatorIN3zmq15socket_poller_t6item_tEED2Ev(ptr noundef nonnull align 8 dereferenceable(24) %18) #17
  ret void

19:                                               ; preds = %1
  %20 = landingpad { ptr, i32 }
          catch ptr null
  %21 = extractvalue { ptr, i32 } %20, 0
  call void @__clang_call_terminate(ptr %21) #20
  unreachable
}

; Function Attrs: inlinehint mustprogress uwtable
define linkonce_odr void @_ZSt8_DestroyIPN3zmq15socket_poller_t6item_tES2_EvT_S4_RSaIT0_E(ptr noundef %0, ptr noundef %1, ptr noundef nonnull align 1 dereferenceable(1) %2) #13 comdat {
  %4 = alloca ptr, align 8
  %5 = alloca ptr, align 8
  %6 = alloca ptr, align 8
  store ptr %0, ptr %4, align 8, !tbaa !51
  store ptr %1, ptr %5, align 8, !tbaa !51
  store ptr %2, ptr %6, align 8, !tbaa !96
  %7 = load ptr, ptr %4, align 8, !tbaa !51
  %8 = load ptr, ptr %5, align 8, !tbaa !51
  call void @_ZSt8_DestroyIPN3zmq15socket_poller_t6item_tEEvT_S4_(ptr noundef %7, ptr noundef %8)
  ret void
}

; Function Attrs: mustprogress nounwind uwtable
define linkonce_odr noundef nonnull align 1 dereferenceable(1) ptr @_ZNSt12_Vector_baseIN3zmq15socket_poller_t6item_tESaIS2_EE19_M_get_Tp_allocatorEv(ptr noundef nonnull align 8 dereferenceable(24) %0) #1 comdat align 2 {
  %2 = alloca ptr, align 8
  store ptr %0, ptr %2, align 8, !tbaa !92
  %3 = load ptr, ptr %2, align 8
  %4 = getelementptr inbounds nuw %"struct.std::_Vector_base", ptr %3, i32 0, i32 0
  ret ptr %4
}

; Function Attrs: mustprogress nounwind uwtable
define linkonce_odr noundef nonnull align 8 dereferenceable(8) ptr @_ZNK9__gnu_cxx17__normal_iteratorIPN3zmq15socket_poller_t6item_tESt6vectorIS3_SaIS3_EEE4baseEv(ptr noundef nonnull align 8 dereferenceable(8) %0) #1 comdat align 2 {
  %2 = alloca ptr, align 8
  store ptr %0, ptr %2, align 8, !tbaa !49
  %3 = load ptr, ptr %2, align 8
  %4 = getelementptr inbounds nuw %"class.__gnu_cxx::__normal_iterator", ptr %3, i32 0, i32 0
  ret ptr %4
}

; Function Attrs: mustprogress nounwind uwtable
define linkonce_odr void @_ZN9__gnu_cxx17__normal_iteratorIPN3zmq15socket_poller_t6item_tESt6vectorIS3_SaIS3_EEEC2ERKS4_(ptr noundef nonnull align 8 dereferenceable(8) %0, ptr noundef nonnull align 8 dereferenceable(8) %1) unnamed_addr #1 comdat align 2 {
  %3 = alloca ptr, align 8
  %4 = alloca ptr, align 8
  store ptr %0, ptr %3, align 8, !tbaa !49
  store ptr %1, ptr %4, align 8, !tbaa !102
  %5 = load ptr, ptr %3, align 8
  %6 = getelementptr inbounds nuw %"class.__gnu_cxx::__normal_iterator", ptr %5, i32 0, i32 0
  %7 = load ptr, ptr %4, align 8, !tbaa !102
  %8 = load ptr, ptr %7, align 8, !tbaa !51
  store ptr %8, ptr %6, align 8, !tbaa !52
  ret void
}

; Function Attrs: mustprogress nounwind uwtable
define linkonce_odr void @_ZNSt6vectorIN3zmq15socket_poller_t6item_tESaIS2_EED2Ev(ptr noundef nonnull align 8 dereferenceable(24) %0) unnamed_addr #1 comdat align 2 personality ptr @__gxx_personality_v0 {
  %2 = alloca ptr, align 8
  store ptr %0, ptr %2, align 8, !tbaa !21
  %3 = load ptr, ptr %2, align 8
  %4 = getelementptr inbounds nuw %"struct.std::_Vector_base", ptr %3, i32 0, i32 0
  %5 = getelementptr inbounds nuw %"struct.std::_Vector_base<zmq::socket_poller_t::item_t, std::allocator<zmq::socket_poller_t::item_t>>::_Vector_impl_data", ptr %4, i32 0, i32 0
  %6 = load ptr, ptr %5, align 8, !tbaa !46
  %7 = getelementptr inbounds nuw %"struct.std::_Vector_base", ptr %3, i32 0, i32 0
  %8 = getelementptr inbounds nuw %"struct.std::_Vector_base<zmq::socket_poller_t::item_t, std::allocator<zmq::socket_poller_t::item_t>>::_Vector_impl_data", ptr %7, i32 0, i32 1
  %9 = load ptr, ptr %8, align 8, !tbaa !47
  %10 = call noundef nonnull align 1 dereferenceable(1) ptr @_ZNSt12_Vector_baseIN3zmq15socket_poller_t6item_tESaIS2_EE19_M_get_Tp_allocatorEv(ptr noundef nonnull align 8 dereferenceable(24) %3) #17
  invoke void @_ZSt8_DestroyIPN3zmq15socket_poller_t6item_tES2_EvT_S4_RSaIT0_E(ptr noundef %6, ptr noundef %9, ptr noundef nonnull align 1 dereferenceable(1) %10)
          to label %11 unwind label %12

11:                                               ; preds = %1
  call void @_ZNSt12_Vector_baseIN3zmq15socket_poller_t6item_tESaIS2_EED2Ev(ptr noundef nonnull align 8 dereferenceable(24) %3) #17
  ret void

12:                                               ; preds = %1
  %13 = landingpad { ptr, i32 }
          catch ptr null
  %14 = extractvalue { ptr, i32 } %13, 0
  call void @__clang_call_terminate(ptr %14) #20
  unreachable
}

; Function Attrs: mustprogress nounwind uwtable
define linkonce_odr noundef nonnull align 8 dereferenceable(8) ptr @_ZN9__gnu_cxx17__normal_iteratorIPN3zmq15socket_poller_t6item_tESt6vectorIS3_SaIS3_EEEppEv(ptr noundef nonnull align 8 dereferenceable(8) %0) #1 comdat align 2 {
  %2 = alloca ptr, align 8
  store ptr %0, ptr %2, align 8, !tbaa !49
  %3 = load ptr, ptr %2, align 8
  %4 = getelementptr inbounds nuw %"class.__gnu_cxx::__normal_iterator", ptr %3, i32 0, i32 0
  %5 = load ptr, ptr %4, align 8, !tbaa !52
  %6 = getelementptr inbounds nuw %"struct.zmq::socket_poller_t::item_t", ptr %5, i32 1
  store ptr %6, ptr %4, align 8, !tbaa !52
  ret ptr %3
}

; Function Attrs: mustprogress uwtable
define internal noundef zeroext i1 @_ZL14is_thread_safeRKN3zmq13socket_base_tE(ptr noundef nonnull align 8 dereferenceable(1825) %0) #0 {
  %2 = alloca ptr, align 8
  store ptr %0, ptr %2, align 8, !tbaa !54
  %3 = load ptr, ptr %2, align 8, !tbaa !54
  %4 = call noundef zeroext i1 @_ZNK3zmq13socket_base_t14is_thread_safeEv(ptr noundef nonnull align 8 dereferenceable(1825) %3)
  ret i1 %4
}

; Function Attrs: mustprogress nounwind uwtable
define linkonce_odr noundef ptr @_ZNK9__gnu_cxx17__normal_iteratorIPN3zmq15socket_poller_t6item_tESt6vectorIS3_SaIS3_EEEptEv(ptr noundef nonnull align 8 dereferenceable(8) %0) #1 comdat align 2 {
  %2 = alloca ptr, align 8
  store ptr %0, ptr %2, align 8, !tbaa !49
  %3 = load ptr, ptr %2, align 8
  %4 = getelementptr inbounds nuw %"class.__gnu_cxx::__normal_iterator", ptr %3, i32 0, i32 0
  %5 = load ptr, ptr %4, align 8, !tbaa !52
  ret ptr %5
}

; Function Attrs: inlinehint mustprogress nounwind uwtable
define linkonce_odr noundef zeroext i1 @_ZN9__gnu_cxxneIPN3zmq15socket_poller_t6item_tESt6vectorIS3_SaIS3_EEEEbRKNS_17__normal_iteratorIT_T0_EESD_(ptr noundef nonnull align 8 dereferenceable(8) %0, ptr noundef nonnull align 8 dereferenceable(8) %1) #3 comdat {
  %3 = alloca ptr, align 8
  %4 = alloca ptr, align 8
  store ptr %0, ptr %3, align 8, !tbaa !49
  store ptr %1, ptr %4, align 8, !tbaa !49
  %5 = load ptr, ptr %3, align 8, !tbaa !49
  %6 = call noundef nonnull align 8 dereferenceable(8) ptr @_ZNK9__gnu_cxx17__normal_iteratorIPN3zmq15socket_poller_t6item_tESt6vectorIS3_SaIS3_EEE4baseEv(ptr noundef nonnull align 8 dereferenceable(8) %5) #17
  %7 = load ptr, ptr %6, align 8, !tbaa !51
  %8 = load ptr, ptr %4, align 8, !tbaa !49
  %9 = call noundef nonnull align 8 dereferenceable(8) ptr @_ZNK9__gnu_cxx17__normal_iteratorIPN3zmq15socket_poller_t6item_tESt6vectorIS3_SaIS3_EEE4baseEv(ptr noundef nonnull align 8 dereferenceable(8) %8) #17
  %10 = load ptr, ptr %9, align 8, !tbaa !51
  %11 = icmp ne ptr %7, %10
  ret i1 %11
}

; Function Attrs: mustprogress nounwind uwtable
define linkonce_odr ptr @_ZNSt6vectorIN3zmq15socket_poller_t6item_tESaIS2_EE3endEv(ptr noundef nonnull align 8 dereferenceable(24) %0) #1 comdat align 2 {
  %2 = alloca %"class.__gnu_cxx::__normal_iterator", align 8
  %3 = alloca ptr, align 8
  store ptr %0, ptr %3, align 8, !tbaa !21
  %4 = load ptr, ptr %3, align 8
  %5 = getelementptr inbounds nuw %"struct.std::_Vector_base", ptr %4, i32 0, i32 0
  %6 = getelementptr inbounds nuw %"struct.std::_Vector_base<zmq::socket_poller_t::item_t, std::allocator<zmq::socket_poller_t::item_t>>::_Vector_impl_data", ptr %5, i32 0, i32 1
  call void @_ZN9__gnu_cxx17__normal_iteratorIPN3zmq15socket_poller_t6item_tESt6vectorIS3_SaIS3_EEEC2ERKS4_(ptr noundef nonnull align 8 dereferenceable(8) %2, ptr noundef nonnull align 8 dereferenceable(8) %6) #17
  %7 = getelementptr inbounds nuw %"class.__gnu_cxx::__normal_iterator", ptr %2, i32 0, i32 0
  %8 = load ptr, ptr %7, align 8
  ret ptr %8
}

; Function Attrs: mustprogress nounwind uwtable
define linkonce_odr ptr @_ZNSt6vectorIN3zmq15socket_poller_t6item_tESaIS2_EE5beginEv(ptr noundef nonnull align 8 dereferenceable(24) %0) #1 comdat align 2 {
  %2 = alloca %"class.__gnu_cxx::__normal_iterator", align 8
  %3 = alloca ptr, align 8
  store ptr %0, ptr %3, align 8, !tbaa !21
  %4 = load ptr, ptr %3, align 8
  %5 = getelementptr inbounds nuw %"struct.std::_Vector_base", ptr %4, i32 0, i32 0
  %6 = getelementptr inbounds nuw %"struct.std::_Vector_base<zmq::socket_poller_t::item_t, std::allocator<zmq::socket_poller_t::item_t>>::_Vector_impl_data", ptr %5, i32 0, i32 0
  call void @_ZN9__gnu_cxx17__normal_iteratorIPN3zmq15socket_poller_t6item_tESt6vectorIS3_SaIS3_EEEC2ERKS4_(ptr noundef nonnull align 8 dereferenceable(8) %2, ptr noundef nonnull align 8 dereferenceable(8) %6) #17
  %7 = getelementptr inbounds nuw %"class.__gnu_cxx::__normal_iterator", ptr %2, i32 0, i32 0
  %8 = load ptr, ptr %7, align 8
  ret ptr %8
}

; Function Attrs: mustprogress nounwind uwtable
define void @_ZN3zmq15socket_poller_tD2Ev(ptr noundef nonnull align 8 dereferenceable(56) %0) unnamed_addr #1 align 2 personality ptr @__gxx_personality_v0 {
  %2 = alloca ptr, align 8
  %3 = alloca %"class.__gnu_cxx::__normal_iterator", align 8
  %4 = alloca %"class.__gnu_cxx::__normal_iterator", align 8
  store ptr %0, ptr %2, align 8, !tbaa !3
  %5 = load ptr, ptr %2, align 8
  %6 = getelementptr inbounds nuw %"class.zmq::socket_poller_t", ptr %5, i32 0, i32 0
  store i32 -559038737, ptr %6, align 8, !tbaa !8
  call void @llvm.lifetime.start.p0(i64 8, ptr %3) #17
  %7 = getelementptr inbounds nuw %"class.zmq::socket_poller_t", ptr %5, i32 0, i32 2
  %8 = call ptr @_ZNSt6vectorIN3zmq15socket_poller_t6item_tESaIS2_EE5beginEv(ptr noundef nonnull align 8 dereferenceable(24) %7) #17
  %9 = getelementptr inbounds nuw %"class.__gnu_cxx::__normal_iterator", ptr %3, i32 0, i32 0
  store ptr %8, ptr %9, align 8
  call void @llvm.lifetime.start.p0(i64 8, ptr %4) #17
  %10 = getelementptr inbounds nuw %"class.zmq::socket_poller_t", ptr %5, i32 0, i32 2
  %11 = call ptr @_ZNSt6vectorIN3zmq15socket_poller_t6item_tESaIS2_EE3endEv(ptr noundef nonnull align 8 dereferenceable(24) %10) #17
  %12 = getelementptr inbounds nuw %"class.__gnu_cxx::__normal_iterator", ptr %4, i32 0, i32 0
  store ptr %11, ptr %12, align 8
  br label %13

13:                                               ; preds = %41, %1
  %14 = call noundef zeroext i1 @_ZN9__gnu_cxxneIPN3zmq15socket_poller_t6item_tESt6vectorIS3_SaIS3_EEEEbRKNS_17__normal_iteratorIT_T0_EESD_(ptr noundef nonnull align 8 dereferenceable(8) %3, ptr noundef nonnull align 8 dereferenceable(8) %4) #17
  br i1 %14, label %16, label %15

15:                                               ; preds = %13
  call void @llvm.lifetime.end.p0(i64 8, ptr %4) #17
  call void @llvm.lifetime.end.p0(i64 8, ptr %3) #17
  br label %43

16:                                               ; preds = %13
  %17 = call noundef ptr @_ZNK9__gnu_cxx17__normal_iteratorIPN3zmq15socket_poller_t6item_tESt6vectorIS3_SaIS3_EEEptEv(ptr noundef nonnull align 8 dereferenceable(8) %3) #17
  %18 = getelementptr inbounds nuw %"struct.zmq::socket_poller_t::item_t", ptr %17, i32 0, i32 0
  %19 = load ptr, ptr %18, align 8, !tbaa !30
  %20 = icmp ne ptr %19, null
  br i1 %20, label %21, label %40

21:                                               ; preds = %16
  %22 = call noundef ptr @_ZNK9__gnu_cxx17__normal_iteratorIPN3zmq15socket_poller_t6item_tESt6vectorIS3_SaIS3_EEEptEv(ptr noundef nonnull align 8 dereferenceable(8) %3) #17
  %23 = getelementptr inbounds nuw %"struct.zmq::socket_poller_t::item_t", ptr %22, i32 0, i32 0
  %24 = load ptr, ptr %23, align 8, !tbaa !30
  %25 = invoke noundef zeroext i1 @_ZNK3zmq13socket_base_t9check_tagEv(ptr noundef nonnull align 8 dereferenceable(1825) %24)
          to label %26 unwind label %64

26:                                               ; preds = %21
  br i1 %25, label %27, label %40

27:                                               ; preds = %26
  %28 = call noundef ptr @_ZNK9__gnu_cxx17__normal_iteratorIPN3zmq15socket_poller_t6item_tESt6vectorIS3_SaIS3_EEEptEv(ptr noundef nonnull align 8 dereferenceable(8) %3) #17
  %29 = getelementptr inbounds nuw %"struct.zmq::socket_poller_t::item_t", ptr %28, i32 0, i32 0
  %30 = load ptr, ptr %29, align 8, !tbaa !30
  %31 = invoke noundef zeroext i1 @_ZL14is_thread_safeRKN3zmq13socket_base_tE(ptr noundef nonnull align 8 dereferenceable(1825) %30)
          to label %32 unwind label %64

32:                                               ; preds = %27
  br i1 %31, label %33, label %40

33:                                               ; preds = %32
  %34 = call noundef ptr @_ZNK9__gnu_cxx17__normal_iteratorIPN3zmq15socket_poller_t6item_tESt6vectorIS3_SaIS3_EEEptEv(ptr noundef nonnull align 8 dereferenceable(8) %3) #17
  %35 = getelementptr inbounds nuw %"struct.zmq::socket_poller_t::item_t", ptr %34, i32 0, i32 0
  %36 = load ptr, ptr %35, align 8, !tbaa !30
  %37 = getelementptr inbounds nuw %"class.zmq::socket_poller_t", ptr %5, i32 0, i32 1
  %38 = load ptr, ptr %37, align 8, !tbaa !19
  invoke void @_ZN3zmq13socket_base_t15remove_signalerEPNS_10signaler_tE(ptr noundef nonnull align 8 dereferenceable(1825) %36, ptr noundef %38)
          to label %39 unwind label %64

39:                                               ; preds = %33
  br label %40

40:                                               ; preds = %39, %32, %26, %16
  br label %41

41:                                               ; preds = %40
  %42 = call noundef nonnull align 8 dereferenceable(8) ptr @_ZN9__gnu_cxx17__normal_iteratorIPN3zmq15socket_poller_t6item_tESt6vectorIS3_SaIS3_EEEppEv(ptr noundef nonnull align 8 dereferenceable(8) %3) #17
  br label %13, !llvm.loop !48

43:                                               ; preds = %15
  %44 = getelementptr inbounds nuw %"class.zmq::socket_poller_t", ptr %5, i32 0, i32 1
  %45 = load ptr, ptr %44, align 8, !tbaa !19
  %46 = icmp ne ptr %45, null
  br i1 %46, label %47, label %54

47:                                               ; preds = %43
  %48 = getelementptr inbounds nuw %"class.zmq::socket_poller_t", ptr %5, i32 0, i32 1
  %49 = load ptr, ptr %48, align 8, !tbaa !19
  %50 = icmp eq ptr %49, null
  br i1 %50, label %52, label %51

51:                                               ; preds = %47
  call void @_ZN3zmq10signaler_tD1Ev(ptr noundef nonnull align 4 dereferenceable(12) %49) #17
  call void @_ZdlPv(ptr noundef %49) #21
  br label %52

52:                                               ; preds = %51, %47
  %53 = getelementptr inbounds nuw %"class.zmq::socket_poller_t", ptr %5, i32 0, i32 1
  store ptr null, ptr %53, align 8, !tbaa !19
  br label %54

54:                                               ; preds = %52, %43
  %55 = getelementptr inbounds nuw %"class.zmq::socket_poller_t", ptr %5, i32 0, i32 6
  %56 = load ptr, ptr %55, align 8, !tbaa !20
  %57 = icmp ne ptr %56, null
  br i1 %57, label %58, label %62

58:                                               ; preds = %54
  %59 = getelementptr inbounds nuw %"class.zmq::socket_poller_t", ptr %5, i32 0, i32 6
  %60 = load ptr, ptr %59, align 8, !tbaa !20
  call void @free(ptr noundef %60) #17
  %61 = getelementptr inbounds nuw %"class.zmq::socket_poller_t", ptr %5, i32 0, i32 6
  store ptr null, ptr %61, align 8, !tbaa !20
  br label %62

62:                                               ; preds = %58, %54
  %63 = getelementptr inbounds nuw %"class.zmq::socket_poller_t", ptr %5, i32 0, i32 2
  call void @_ZNSt6vectorIN3zmq15socket_poller_t6item_tESaIS2_EED2Ev(ptr noundef nonnull align 8 dereferenceable(24) %63) #17
  ret void

64:                                               ; preds = %33, %27, %21
  %65 = landingpad { ptr, i32 }
          catch ptr null
  %66 = extractvalue { ptr, i32 } %65, 0
  call void @__clang_call_terminate(ptr %66) #20
  unreachable
}