; Function Attrs: mustprogress nounwind uwtable
define void @_ZN3zmq15socket_poller_tD2Ev(ptr noundef nonnull align 8 captures(none) dereferenceable(56) initializes((0, 4)) %0) unnamed_addr #1 align 2 personality ptr @__gxx_personality_v0 {
  store i32 -559038737, ptr %0, align 8, !tbaa !3
  %2 = getelementptr inbounds nuw i8, ptr %0, i64 16
  %3 = load ptr, ptr %2, align 8, !tbaa !22
  %4 = getelementptr inbounds nuw i8, ptr %0, i64 24
  %5 = load ptr, ptr %4, align 8, !tbaa !22
  %.not1011 = icmp eq ptr %3, %5
  br i1 %.not1011, label %._crit_edge, label %.lr.ph

.lr.ph:                                           ; preds = %1
  %6 = getelementptr inbounds nuw i8, ptr %0, i64 8
  br label %9

._crit_edge:                                      ; preds = %20, %1
  %7 = getelementptr inbounds nuw i8, ptr %0, i64 8
  %8 = load ptr, ptr %7, align 8, !tbaa !33
  %.not = icmp eq ptr %8, null
  br i1 %.not, label %23, label %22

9:                                                ; preds = %.lr.ph, %20
  %.sroa.04.012 = phi ptr [ %3, %.lr.ph ], [ %21, %20 ]
  %10 = load ptr, ptr %.sroa.04.012, align 8, !tbaa !27
  %.not3 = icmp eq ptr %10, null
  br i1 %.not3, label %20, label %11

11:                                               ; preds = %9
  %12 = invoke noundef zeroext i1 @_ZNK3zmq13socket_base_t9check_tagEv(ptr noundef nonnull align 8 dereferenceable(1825) %10)
          to label %13 unwind label %30

13:                                               ; preds = %11
  br i1 %12, label %14, label %20

14:                                               ; preds = %13
  %15 = load ptr, ptr %.sroa.04.012, align 8, !tbaa !27
  %16 = invoke noundef zeroext i1 @_ZNK3zmq13socket_base_t14is_thread_safeEv(ptr noundef nonnull align 8 dereferenceable(1825) %15)
          to label %_ZL14is_thread_safeRKN3zmq13socket_base_tE.exit unwind label %30

_ZL14is_thread_safeRKN3zmq13socket_base_tE.exit:  ; preds = %14
  br i1 %16, label %17, label %20

17:                                               ; preds = %_ZL14is_thread_safeRKN3zmq13socket_base_tE.exit
  %18 = load ptr, ptr %.sroa.04.012, align 8, !tbaa !27
  %19 = load ptr, ptr %6, align 8, !tbaa !33
  invoke void @_ZN3zmq13socket_base_t15remove_signalerEPNS_10signaler_tE(ptr noundef nonnull align 8 dereferenceable(1825) %18, ptr noundef %19)
          to label %20 unwind label %30

20:                                               ; preds = %9, %13, %_ZL14is_thread_safeRKN3zmq13socket_base_tE.exit, %17
  %21 = getelementptr inbounds nuw i8, ptr %.sroa.04.012, i64 32
  %.not10 = icmp eq ptr %21, %5
  br i1 %.not10, label %._crit_edge, label %9, !llvm.loop !45

22:                                               ; preds = %._crit_edge
  tail call void @_ZN3zmq10signaler_tD1Ev(ptr noundef nonnull align 4 dereferenceable(12) %8) #24
  tail call void @_ZdlPv(ptr noundef nonnull %8) #23
  store ptr null, ptr %7, align 8, !tbaa !33
  br label %23

23:                                               ; preds = %22, %._crit_edge
  %24 = getelementptr inbounds nuw i8, ptr %0, i64 48
  %25 = load ptr, ptr %24, align 8, !tbaa !17
  %.not2 = icmp eq ptr %25, null
  br i1 %.not2, label %27, label %26

26:                                               ; preds = %23
  tail call void @free(ptr noundef nonnull %25) #24
  store ptr null, ptr %24, align 8, !tbaa !17
  br label %27

27:                                               ; preds = %26, %23
  %28 = load ptr, ptr %2, align 8, !tbaa !18
  %.not.i.i.i = icmp eq ptr %28, null
  br i1 %.not.i.i.i, label %_ZNSt6vectorIN3zmq15socket_poller_t6item_tESaIS2_EED2Ev.exit, label %29

29:                                               ; preds = %27
  tail call void @_ZdlPv(ptr noundef nonnull %28) #23
  br label %_ZNSt6vectorIN3zmq15socket_poller_t6item_tESaIS2_EED2Ev.exit

_ZNSt6vectorIN3zmq15socket_poller_t6item_tESaIS2_EED2Ev.exit: ; preds = %27, %29
  ret void

30:                                               ; preds = %14, %17, %11
  %31 = landingpad { ptr, i32 }
          catch ptr null
  %32 = extractvalue { ptr, i32 } %31, 0
  tail call void @__clang_call_terminate(ptr %32) #28
  unreachable
}